; Function Attrs: nounwind uwtable
define ptr @l_Lean_Compiler_LCNF_UnreachableBranches_Value_ofNat(ptr noundef %0) local_unnamed_addr #1 {
  %2 = load ptr, ptr @l_Lean_Compiler_LCNF_UnreachableBranches_Value_maxValueDepth, align 8, !tbaa !11
  %3 = ptrtoint ptr %2 to i64
  %4 = ptrtoint ptr %0 to i64
  %5 = and i64 %4, 1
  %6 = and i64 %5, %3
  %or.cond.not = icmp eq i64 %6, 0
  br i1 %or.cond.not, label %lean_nat_lt.exit, label %7, !prof !18

7:                                                ; preds = %1
  %8 = icmp ult ptr %2, %0
  br i1 %8, label %12, label %10

lean_nat_lt.exit:                                 ; preds = %1
  %9 = tail call zeroext i1 @lean_nat_big_lt(ptr noundef %2, ptr noundef %0) #8
  br i1 %9, label %12, label %10

10:                                               ; preds = %7, %lean_nat_lt.exit
  %11 = tail call ptr @l_Lean_Compiler_LCNF_UnreachableBranches_Value_ofNat_goSmall(ptr noundef %0)
  br label %14

12:                                               ; preds = %7, %lean_nat_lt.exit
  %13 = tail call ptr @l_Lean_Compiler_LCNF_UnreachableBranches_Value_ofNat_goBig(ptr noundef %0, ptr noundef %0)
  br label %14

14:                                               ; preds = %12, %10
  %.0 = phi ptr [ %11, %10 ], [ %13, %12 ]
  ret ptr %.0
}